target datalayout = "e-m:e-p270:32:32-p271:32:32-p272:64:64-i64:64-i128:128-f80:128-n8:16:32:64-S128"
target triple = "x86_64-pc-linux-gnu"

%"struct.Luau::ToStringOptions" = type { i8, i8, i8, i8, i8, i8, i8, i64, i64, i64, %"struct.Luau::ToStringNameMap", %"class.std::shared_ptr", %"class.std::vector.37" }
%"struct.Luau::ToStringNameMap" = type { %"class.std::unordered_map", %"class.std::unordered_map.17" }
%"class.std::unordered_map" = type { %"class.std::_Hashtable" }
%"class.std::_Hashtable" = type { ptr, i64, %"struct.std::__detail::_Hash_node_base", i64, %"struct.std::__detail::_Prime_rehash_policy", ptr }
%"struct.std::__detail::_Hash_node_base" = type { ptr }
%"struct.std::__detail::_Prime_rehash_policy" = type { float, i64 }
%"class.std::unordered_map.17" = type { %"class.std::_Hashtable.18" }
%"class.std::_Hashtable.18" = type { ptr, i64, %"struct.std::__detail::_Hash_node_base", i64, %"struct.std::__detail::_Prime_rehash_policy", ptr }
%"class.std::shared_ptr" = type { %"class.std::__shared_ptr" }
%"class.std::__shared_ptr" = type { ptr, %"class.std::__shared_count" }
%"class.std::__shared_count" = type { ptr }
%"class.std::vector.37" = type { %"struct.std::_Vector_base.38" }
%"struct.std::_Vector_base.38" = type { %"struct.std::_Vector_base<std::__cxx11::basic_string<char>, std::allocator<std::__cxx11::basic_string<char>>>::_Vector_impl" }
%"struct.std::_Vector_base<std::__cxx11::basic_string<char>, std::allocator<std::__cxx11::basic_string<char>>>::_Vector_impl" = type { %"struct.std::_Vector_base<std::__cxx11::basic_string<char>, std::allocator<std::__cxx11::basic_string<char>>>::_Vector_impl_data" }
%"struct.std::_Vector_base<std::__cxx11::basic_string<char>, std::allocator<std::__cxx11::basic_string<char>>>::_Vector_impl_data" = type { ptr, ptr, ptr }
%"struct.Luau::TypeStringifier" = type { ptr }
%"struct.Luau::StringifierState" = type { ptr, ptr, %"class.Luau::DenseHashMap", %"class.Luau::DenseHashMap.1", %"class.Luau::Set", %"class.Luau::DenseHashSet", i64, i8, i32 }
%"class.Luau::DenseHashMap" = type { %"class.Luau::detail::DenseHashTable" }
%"class.Luau::detail::DenseHashTable" = type <{ ptr, i64, i64, ptr, [8 x i8] }>
%"class.Luau::DenseHashMap.1" = type { %"class.Luau::detail::DenseHashTable.2" }
%"class.Luau::detail::DenseHashTable.2" = type <{ ptr, i64, i64, ptr, [8 x i8] }>
%"class.Luau::Set" = type { %"class.Luau::DenseHashMap.4", i64 }
%"class.Luau::DenseHashMap.4" = type { %"class.Luau::detail::DenseHashTable.5" }
%"class.Luau::detail::DenseHashTable.5" = type <{ ptr, i64, i64, ptr, [8 x i8] }>
%"class.Luau::DenseHashSet" = type { %"class.Luau::detail::DenseHashTable.7" }
%"class.Luau::detail::DenseHashTable.7" = type <{ ptr, i64, i64, %"class.std::__cxx11::basic_string", [8 x i8] }>
%"class.std::__cxx11::basic_string" = type { %"struct.std::__cxx11::basic_string<char>::_Alloc_hider", i64, %union.anon }
%"struct.std::__cxx11::basic_string<char>::_Alloc_hider" = type { ptr }
%union.anon = type { i64, [8 x i8] }
%"struct.Luau::ToStringResult" = type <{ %"class.std::__cxx11::basic_string", i8, i8, i8, i8, [4 x i8] }>
%class.anon.106 = type { ptr, ptr }
%"struct.Luau::NeverType" = type { i8 }

@.str.153 = private unnamed_addr constant [6 x i8] c"never\00", align 1
@.str.183 = private unnamed_addr constant [21 x i8] c"basic_string::append\00", align 1

; Function Attrs: mustprogress nounwind uwtable
define linkonce_odr dso_local noundef i64 @_ZNKSt15__new_allocatorIcE11_M_max_sizeEv(ptr noundef nonnull align 1 dereferenceable(1) %0) #2 comdat align 2 {
  %2 = alloca ptr, align 8
  store ptr %0, ptr %2, align 8, !tbaa !290
  ret i64 9223372036854775807
}

; Function Attrs: mustprogress nounwind uwtable
define linkonce_odr dso_local noundef i64 @_ZNKSt15__new_allocatorIcE8max_sizeEv(ptr noundef nonnull align 1 dereferenceable(1) %0) #2 comdat align 2 {
  %2 = alloca ptr, align 8
  store ptr %0, ptr %2, align 8, !tbaa !290
  %3 = load ptr, ptr %2, align 8
  %4 = call noundef i64 @_ZNKSt15__new_allocatorIcE11_M_max_sizeEv(ptr noundef nonnull align 1 dereferenceable(1) %3) #3
  ret i64 %4
}

; Function Attrs: noinline noreturn nounwind uwtable
define linkonce_odr hidden void @__clang_call_terminate(ptr noundef %0) #13 comdat {
  %2 = call ptr @__cxa_begin_catch(ptr %0) #3
  call void @_ZSt9terminatev() #21
  unreachable
}

; Function Attrs: mustprogress nounwind uwtable
define linkonce_odr dso_local noundef i64 @_ZNSt16allocator_traitsISaIcEE8max_sizeERKS0_(ptr noundef nonnull align 1 dereferenceable(1) %0) #2 comdat align 2 {
  %2 = alloca ptr, align 8
  store ptr %0, ptr %2, align 8, !tbaa !288
  %3 = load ptr, ptr %2, align 8, !tbaa !288
  %4 = call noundef i64 @_ZNKSt15__new_allocatorIcE8max_sizeEv(ptr noundef nonnull align 1 dereferenceable(1) %3) #3
  ret i64 %4
}

; Function Attrs: mustprogress nounwind uwtable
define available_externally noundef nonnull align 1 dereferenceable(1) ptr @_ZNKSt7__cxx1112basic_stringIcSt11char_traitsIcESaIcEE16_M_get_allocatorEv(ptr noundef nonnull align 8 dereferenceable(32) %0) #2 align 2 {
  %2 = alloca ptr, align 8
  store ptr %0, ptr %2, align 8, !tbaa !103
  %3 = load ptr, ptr %2, align 8
  %4 = getelementptr inbounds nuw %"class.std::__cxx11::basic_string", ptr %3, i32 0, i32 0
  ret ptr %4
}

; Function Attrs: mustprogress nounwind uwtable
define available_externally noundef i64 @_ZNKSt7__cxx1112basic_stringIcSt11char_traitsIcESaIcEE4sizeEv(ptr noundef nonnull align 8 dereferenceable(32) %0) #2 align 2 {
  %2 = alloca ptr, align 8
  store ptr %0, ptr %2, align 8, !tbaa !103
  %3 = load ptr, ptr %2, align 8
  %4 = getelementptr inbounds nuw %"class.std::__cxx11::basic_string", ptr %3, i32 0, i32 1
  %5 = load i64, ptr %4, align 8, !tbaa !236
  ret i64 %5
}

; Function Attrs: mustprogress nounwind uwtable
define available_externally noundef i64 @_ZNKSt7__cxx1112basic_stringIcSt11char_traitsIcESaIcEE8max_sizeEv(ptr noundef nonnull align 8 dereferenceable(32) %0) #2 align 2 personality ptr @__gxx_personality_v0 {
  %2 = alloca ptr, align 8
  store ptr %0, ptr %2, align 8, !tbaa !103
  %3 = load ptr, ptr %2, align 8
  %4 = invoke noundef nonnull align 1 dereferenceable(1) ptr @_ZNKSt7__cxx1112basic_stringIcSt11char_traitsIcESaIcEE16_M_get_allocatorEv(ptr noundef nonnull align 8 dereferenceable(32) %3)
          to label %5 unwind label %9

5:                                                ; preds = %1
  %6 = call noundef i64 @_ZNSt16allocator_traitsISaIcEE8max_sizeERKS0_(ptr noundef nonnull align 1 dereferenceable(1) %4) #3
  %7 = sub i64 %6, 1
  %8 = udiv i64 %7, 2
  ret i64 %8

9:                                                ; preds = %1
  %10 = landingpad { ptr, i32 }
          catch ptr null
  %11 = extractvalue { ptr, i32 } %10, 0
  call void @__clang_call_terminate(ptr %11) #21
  unreachable
}

; Function Attrs: mustprogress uwtable
define available_externally void @_ZNKSt7__cxx1112basic_stringIcSt11char_traitsIcESaIcEE15_M_check_lengthEmmPKc(ptr noundef nonnull align 8 dereferenceable(32) %0, i64 noundef %1, i64 noundef %2, ptr noundef %3) #5 align 2 {
  %5 = alloca ptr, align 8
  %6 = alloca i64, align 8
  %7 = alloca i64, align 8
  %8 = alloca ptr, align 8
  store ptr %0, ptr %5, align 8, !tbaa !103
  store i64 %1, ptr %6, align 8, !tbaa !200
  store i64 %2, ptr %7, align 8, !tbaa !200
  store ptr %3, ptr %8, align 8, !tbaa !11
  %9 = load ptr, ptr %5, align 8
  %10 = call noundef i64 @_ZNKSt7__cxx1112basic_stringIcSt11char_traitsIcESaIcEE8max_sizeEv(ptr noundef nonnull align 8 dereferenceable(32) %9) #3
  %11 = call noundef i64 @_ZNKSt7__cxx1112basic_stringIcSt11char_traitsIcESaIcEE4sizeEv(ptr noundef nonnull align 8 dereferenceable(32) %9) #3
  %12 = load i64, ptr %6, align 8, !tbaa !200
  %13 = sub i64 %11, %12
  %14 = sub i64 %10, %13
  %15 = load i64, ptr %7, align 8, !tbaa !200
  %16 = icmp ult i64 %14, %15
  br i1 %16, label %17, label %19

17:                                               ; preds = %4
  %18 = load ptr, ptr %8, align 8, !tbaa !11
  call void @_ZSt20__throw_length_errorPKc(ptr noundef %18) #22
  unreachable

19:                                               ; preds = %4
  ret void
}

; Function Attrs: mustprogress nounwind uwtable
define linkonce_odr dso_local noundef i64 @_ZNSt11char_traitsIcE6lengthEPKc(ptr noundef %0) #2 comdat align 2 {
  %2 = alloca ptr, align 8
  store ptr %0, ptr %2, align 8, !tbaa !11
  %3 = load ptr, ptr %2, align 8, !tbaa !11
  %4 = call i64 @strlen(ptr noundef %3) #3
  ret i64 %4
}

; Function Attrs: mustprogress uwtable
define available_externally noundef nonnull align 8 dereferenceable(32) ptr @_ZNSt7__cxx1112basic_stringIcSt11char_traitsIcESaIcEE6appendEPKc(ptr noundef nonnull align 8 dereferenceable(32) %0, ptr noundef %1) #5 align 2 {
  %3 = alloca ptr, align 8
  %4 = alloca ptr, align 8
  %5 = alloca i64, align 8
  store ptr %0, ptr %3, align 8, !tbaa !103
  store ptr %1, ptr %4, align 8, !tbaa !11
  %6 = load ptr, ptr %3, align 8
  call void @llvm.lifetime.start.p0(i64 8, ptr %5) #3
  %7 = load ptr, ptr %4, align 8, !tbaa !11
  %8 = call noundef i64 @_ZNSt11char_traitsIcE6lengthEPKc(ptr noundef %7)
  store i64 %8, ptr %5, align 8, !tbaa !200
  %9 = load i64, ptr %5, align 8, !tbaa !200
  call void @_ZNKSt7__cxx1112basic_stringIcSt11char_traitsIcESaIcEE15_M_check_lengthEmmPKc(ptr noundef nonnull align 8 dereferenceable(32) %6, i64 noundef 0, i64 noundef %9, ptr noundef @.str.183)
  %10 = load ptr, ptr %4, align 8, !tbaa !11
  %11 = load i64, ptr %5, align 8, !tbaa !200
  %12 = call noundef nonnull align 8 dereferenceable(32) ptr @_ZNSt7__cxx1112basic_stringIcSt11char_traitsIcESaIcEE9_M_appendEPKcm(ptr noundef nonnull align 8 dereferenceable(32) %6, ptr noundef %10, i64 noundef %11)
  call void @llvm.lifetime.end.p0(i64 8, ptr %5) #3
  ret ptr %12
}

; Function Attrs: mustprogress uwtable
define available_externally noundef nonnull align 8 dereferenceable(32) ptr @_ZNSt7__cxx1112basic_stringIcSt11char_traitsIcESaIcEEpLEPKc(ptr noundef nonnull align 8 dereferenceable(32) %0, ptr noundef %1) #5 align 2 {
  %3 = alloca ptr, align 8
  %4 = alloca ptr, align 8
  store ptr %0, ptr %3, align 8, !tbaa !103
  store ptr %1, ptr %4, align 8, !tbaa !11
  %5 = load ptr, ptr %3, align 8
  %6 = load ptr, ptr %4, align 8, !tbaa !11
  %7 = call noundef nonnull align 8 dereferenceable(32) ptr @_ZNSt7__cxx1112basic_stringIcSt11char_traitsIcESaIcEE6appendEPKc(ptr noundef nonnull align 8 dereferenceable(32) %5, ptr noundef %6)
  ret ptr %7
}

; Function Attrs: mustprogress nounwind uwtable
define available_externally noundef i64 @_ZNKSt7__cxx1112basic_stringIcSt11char_traitsIcESaIcEE6lengthEv(ptr noundef nonnull align 8 dereferenceable(32) %0) #2 align 2 {
  %2 = alloca ptr, align 8
  store ptr %0, ptr %2, align 8, !tbaa !103
  %3 = load ptr, ptr %2, align 8
  %4 = getelementptr inbounds nuw %"class.std::__cxx11::basic_string", ptr %3, i32 0, i32 1
  %5 = load i64, ptr %4, align 8, !tbaa !236
  ret i64 %5
}

; Function Attrs: mustprogress uwtable
define linkonce_odr dso_local void @_ZN4Luau16StringifierState4emitEPKc(ptr noundef nonnull align 8 dereferenceable(224) %0, ptr noundef %1) #5 comdat align 2 {
  %3 = alloca ptr, align 8
  %4 = alloca ptr, align 8
  store ptr %0, ptr %3, align 8, !tbaa !44
  store ptr %1, ptr %4, align 8, !tbaa !11
  %5 = load ptr, ptr %3, align 8
  %6 = getelementptr inbounds nuw %"struct.Luau::StringifierState", ptr %5, i32 0, i32 0
  %7 = load ptr, ptr %6, align 8, !tbaa !51
  %8 = getelementptr inbounds nuw %"struct.Luau::ToStringOptions", ptr %7, i32 0, i32 8
  %9 = load i64, ptr %8, align 8, !tbaa !78
  %10 = icmp ugt i64 %9, 0
  br i1 %10, label %11, label %22

11:                                               ; preds = %2
  %12 = getelementptr inbounds nuw %"struct.Luau::StringifierState", ptr %5, i32 0, i32 1
  %13 = load ptr, ptr %12, align 8, !tbaa !100
  %14 = getelementptr inbounds nuw %"struct.Luau::ToStringResult", ptr %13, i32 0, i32 0
  %15 = call noundef i64 @_ZNKSt7__cxx1112basic_stringIcSt11char_traitsIcESaIcEE6lengthEv(ptr noundef nonnull align 8 dereferenceable(32) %14) #3
  %16 = getelementptr inbounds nuw %"struct.Luau::StringifierState", ptr %5, i32 0, i32 0
  %17 = load ptr, ptr %16, align 8, !tbaa !51
  %18 = getelementptr inbounds nuw %"struct.Luau::ToStringOptions", ptr %17, i32 0, i32 8
  %19 = load i64, ptr %18, align 8, !tbaa !78
  %20 = icmp ugt i64 %15, %19
  br i1 %20, label %21, label %22

21:                                               ; preds = %11
  br label %28

22:                                               ; preds = %11, %2
  %23 = load ptr, ptr %4, align 8, !tbaa !11
  %24 = getelementptr inbounds nuw %"struct.Luau::StringifierState", ptr %5, i32 0, i32 1
  %25 = load ptr, ptr %24, align 8, !tbaa !100
  %26 = getelementptr inbounds nuw %"struct.Luau::ToStringResult", ptr %25, i32 0, i32 0
  %27 = call noundef nonnull align 8 dereferenceable(32) ptr @_ZNSt7__cxx1112basic_stringIcSt11char_traitsIcESaIcEEpLEPKc(ptr noundef nonnull align 8 dereferenceable(32) %26, ptr noundef %23)
  br label %28

28:                                               ; preds = %22, %21
  ret void
}

; Function Attrs: mustprogress uwtable
define linkonce_odr dso_local void @_ZN4Luau15TypeStringifierclEPKNS_4TypeERKNS_9NeverTypeE(ptr noundef nonnull align 8 dereferenceable(8) %0, ptr noundef %1, ptr noundef nonnull align 1 dereferenceable(1) %2) #5 comdat align 2 {
  %4 = alloca ptr, align 8
  %5 = alloca ptr, align 8
  %6 = alloca ptr, align 8
  store ptr %0, ptr %4, align 8, !tbaa !35
  store ptr %1, ptr %5, align 8, !tbaa !107
  store ptr %2, ptr %6, align 8, !tbaa !1036
  %7 = load ptr, ptr %4, align 8
  %8 = getelementptr inbounds nuw %"struct.Luau::TypeStringifier", ptr %7, i32 0, i32 0
  %9 = load ptr, ptr %8, align 8, !tbaa !39
  call void @_ZN4Luau16StringifierState4emitEPKc(ptr noundef nonnull align 8 dereferenceable(224) %9, ptr noundef @.str.153)
  ret void
}

; Function Attrs: inlinehint mustprogress uwtable
define internal void @"_ZZN4Luau16toStringDetailedEPKNS_11TypePackVarERNS_15ToStringOptionsEENK3$_0clINS_9NeverTypeEEEDaT_"(ptr noundef nonnull align 8 dereferenceable(16) %0) #8 align 2 {
  %2 = alloca %"struct.Luau::NeverType", align 1
  %3 = alloca ptr, align 8
  store ptr %0, ptr %3, align 8, !tbaa !137
  %4 = load ptr, ptr %3, align 8
  %5 = getelementptr inbounds nuw %class.anon.106, ptr %4, i32 0, i32 0
  %6 = load ptr, ptr %5, align 8, !tbaa !1066
  %7 = getelementptr inbounds nuw %class.anon.106, ptr %4, i32 0, i32 1
  %8 = load ptr, ptr %7, align 8, !tbaa !243
  call void @_ZN4Luau15TypeStringifierclEPKNS_4TypeERKNS_9NeverTypeE(ptr noundef nonnull align 8 dereferenceable(8) %6, ptr noundef %8, ptr noundef nonnull align 1 dereferenceable(1) %2)
  ret void
}

; Function Attrs: mustprogress uwtable
define internal void @"_ZN4LuauL8fnVisitVIZNS_16toStringDetailedEPKNS_11TypePackVarERNS_15ToStringOptionsEE3$_0KNS_9NeverTypeEEEvRT_PNSt11conditionalIXsr3stdE10is_const_vIT0_EEKvvE4typeE"(ptr noundef nonnull align 8 dereferenceable(16) %0, ptr noundef %1) #5 {
  %3 = alloca ptr, align 8
  %4 = alloca ptr, align 8
  store ptr %0, ptr %3, align 8, !tbaa !137
  store ptr %1, ptr %4, align 8, !tbaa !137
  %5 = load ptr, ptr %3, align 8, !tbaa !137
  call void @"_ZZN4Luau16toStringDetailedEPKNS_11TypePackVarERNS_15ToStringOptionsEENK3$_0clINS_9NeverTypeEEEDaT_"(ptr noundef nonnull align 8 dereferenceable(16) %5)
  ret void
}